; Function Attrs: nounwind uwtable
define internal ptr @cell_new(ptr readnone captures(none) %0, ptr noundef %1, ptr noundef %2) #0 {
  %4 = alloca ptr, align 8
  call void @llvm.lifetime.start.p0(i64 8, ptr nonnull %4) #4
  store ptr null, ptr %4, align 8, !tbaa !106
  %5 = icmp eq ptr %2, null
  br i1 %5, label %8, label %6

6:                                                ; preds = %3
  %7 = tail call i32 @_PyArg_NoKeywords(ptr noundef nonnull @.str.1, ptr noundef nonnull %2) #4
  %.not = icmp eq i32 %7, 0
  br i1 %.not, label %PyCell_New.exit, label %8

8:                                                ; preds = %6, %3
  %9 = call i32 (ptr, ptr, i64, i64, ...) @PyArg_UnpackTuple(ptr noundef %1, ptr noundef nonnull @.str.1, i64 noundef 0, i64 noundef 1, ptr noundef nonnull %4) #4
  %.not5 = icmp eq i32 %9, 0
  br i1 %.not5, label %PyCell_New.exit, label %10

10:                                               ; preds = %8
  %11 = load ptr, ptr %4, align 8, !tbaa !106
  %12 = call ptr @_PyObject_GC_New(ptr noundef nonnull @PyCell_Type) #4
  %13 = icmp eq ptr %12, null
  br i1 %13, label %PyCell_New.exit, label %14

14:                                               ; preds = %10
  %.not.i.i.i = icmp eq ptr %11, null
  br i1 %.not.i.i.i, label %_Py_XNewRef.exit.i, label %15

15:                                               ; preds = %14
  %16 = load i32, ptr %11, align 8, !tbaa !4
  %17 = icmp slt i32 %16, 0
  br i1 %17, label %_Py_XNewRef.exit.i, label %18

18:                                               ; preds = %15
  %19 = add nuw i32 %16, 1
  store i32 %19, ptr %11, align 8, !tbaa !4
  br label %_Py_XNewRef.exit.i

_Py_XNewRef.exit.i:                               ; preds = %18, %15, %14
  %20 = getelementptr inbounds nuw i8, ptr %12, i64 16
  store ptr %11, ptr %20, align 8, !tbaa !7
  %21 = getelementptr i8, ptr %12, i64 -16
  %22 = call align 8 ptr @llvm.threadlocal.address.p0(ptr align 8 @_Py_tss_tstate)
  %23 = load ptr, ptr %22, align 8, !tbaa !13
  %24 = getelementptr inbounds nuw i8, ptr %23, i64 16
  %25 = load ptr, ptr %24, align 8, !tbaa !15
  %26 = getelementptr inbounds nuw i8, ptr %25, i64 7424
  %27 = getelementptr inbounds nuw i8, ptr %25, i64 7432
  %28 = load i64, ptr %27, align 8, !tbaa !26
  %29 = inttoptr i64 %28 to ptr
  %30 = ptrtoint ptr %21 to i64
  %31 = load i64, ptr %29, align 8, !tbaa !28
  %32 = and i64 %31, 3
  %33 = or i64 %32, %30
  store i64 %33, ptr %29, align 8, !tbaa !28
  %34 = getelementptr i8, ptr %12, i64 -8
  %35 = load i64, ptr %34, align 8, !tbaa !26
  %36 = and i64 %35, 3
  %37 = or i64 %36, %28
  store i64 %37, ptr %34, align 8, !tbaa !26
  %38 = getelementptr inbounds nuw i8, ptr %25, i64 7632
  %39 = load i32, ptr %38, align 8, !tbaa !29
  %40 = xor i32 %39, 1
  %41 = sext i32 %40 to i64
  %42 = ptrtoint ptr %26 to i64
  %43 = or i64 %41, %42
  store i64 %43, ptr %21, align 8, !tbaa !28
  store i64 %30, ptr %27, align 8, !tbaa !26
  br label %PyCell_New.exit

PyCell_New.exit:                                  ; preds = %_Py_XNewRef.exit.i, %10, %8, %6
  %.0 = phi ptr [ null, %8 ], [ null, %6 ], [ null, %10 ], [ %12, %_Py_XNewRef.exit.i ]
  call void @llvm.lifetime.end.p0(i64 8, ptr nonnull %4) #4
  ret ptr %.0
}